; ModuleID = '24/40.c'
source_filename = "24/40.c"
target datalayout = "e-m:e-p270:32:32-p271:32:32-p272:64:64-i64:64-f80:128-n8:16:32:64-S128"
target triple = "x86_64-pc-linux-gnu"

%struct._IO_FILE = type { i32, i8*, i8*, i8*, i8*, i8*, i8*, i8*, i8*, i8*, i8*, i8*, %struct._IO_marker*, %struct._IO_FILE*, i32, i32, i64, i16, i8, [1 x i8], i8*, i64, %struct._IO_codecvt*, %struct._IO_wide_data*, %struct._IO_FILE*, i8*, i64, i32, [20 x i8] }
%struct._IO_marker = type opaque
%struct._IO_codecvt = type opaque
%struct._IO_wide_data = type opaque

@stdin = external dso_local global %struct._IO_FILE*, align 8
@.str = private unnamed_addr constant [3 x i8] c"%c\00", align 1
@.str.1 = private unnamed_addr constant [2 x i8] c"\0A\00", align 1

; Function Attrs: noinline nounwind uwtable
define dso_local i32 @main() #0 {
  %1 = alloca i32, align 4
  %2 = alloca [100 x i8], align 16
  %3 = alloca i32, align 4
  %4 = alloca i32, align 4
  %5 = alloca i32, align 4
  %6 = alloca i32, align 4
  %7 = alloca i32, align 4
  %8 = alloca i32, align 4
  %9 = alloca i32, align 4
  %10 = alloca i32, align 4
  %11 = alloca i32, align 4
  store i32 0, i32* %1, align 4
  store i32 0, i32* %3, align 4
  store i32 0, i32* %4, align 4
  store i32 0, i32* %5, align 4
  store i32 1000, i32* %6, align 4
  store i32 0, i32* %7, align 4
  store i32 0, i32* %9, align 4
  %12 = getelementptr inbounds [100 x i8], [100 x i8]* %2, i64 0, i64 0
  %13 = load %struct._IO_FILE*, %struct._IO_FILE** @stdin, align 8
  %14 = call i8* @fgets(i8* %12, i32 100, %struct._IO_FILE* %13)
  br label %15

15:                                               ; preds = %99, %0
  %16 = load i32, i32* %7, align 4
  %17 = sext i32 %16 to i64
  %18 = getelementptr inbounds [100 x i8], [100 x i8]* %2, i64 0, i64 %17
  %19 = load i8, i8* %18, align 1
  %20 = sext i8 %19 to i32
  %21 = icmp ne i32 %20, 0
  br i1 %21, label %22, label %100

22:                                               ; preds = %15
  store i32 0, i32* %8, align 4
  br label %23

23:                                               ; preds = %31, %22
  %24 = load i32, i32* %7, align 4
  %25 = sext i32 %24 to i64
  %26 = getelementptr inbounds [100 x i8], [100 x i8]* %2, i64 0, i64 %25
  %27 = load i8, i8* %26, align 1
  %28 = sext i8 %27 to i32
  %29 = call i32 @isalpha(i32 %28) #3
  %30 = icmp ne i32 %29, 0
  br i1 %30, label %31, label %36

31:                                               ; preds = %23
  %32 = load i32, i32* %7, align 4
  %33 = add nsw i32 %32, 1
  store i32 %33, i32* %7, align 4
  %34 = load i32, i32* %8, align 4
  %35 = add nsw i32 %34, 1
  store i32 %35, i32* %8, align 4
  br label %23

36:                                               ; preds = %23
  br label %37

37:                                               ; preds = %54, %36
  %38 = load i32, i32* %7, align 4
  %39 = sext i32 %38 to i64
  %40 = getelementptr inbounds [100 x i8], [100 x i8]* %2, i64 0, i64 %39
  %41 = load i8, i8* %40, align 1
  %42 = sext i8 %41 to i32
  %43 = call i32 @isalpha(i32 %42) #3
  %44 = icmp ne i32 %43, 0
  br i1 %44, label %52, label %45

45:                                               ; preds = %37
  %46 = load i32, i32* %7, align 4
  %47 = sext i32 %46 to i64
  %48 = getelementptr inbounds [100 x i8], [100 x i8]* %2, i64 0, i64 %47
  %49 = load i8, i8* %48, align 1
  %50 = sext i8 %49 to i32
  %51 = icmp ne i32 %50, 0
  br label %52

52:                                               ; preds = %45, %37
  %53 = phi i1 [ false, %37 ], [ %51, %45 ]
  br i1 %53, label %54, label %57

54:                                               ; preds = %52
  %55 = load i32, i32* %7, align 4
  %56 = add nsw i32 %55, 1
  store i32 %56, i32* %7, align 4
  br label %37

57:                                               ; preds = %52
  %58 = load i32, i32* %8, align 4
  %59 = icmp sgt i32 %58, 0
  br i1 %59, label %60, label %99

60:                                               ; preds = %57
  %61 = load i32, i32* %9, align 4
  %62 = add nsw i32 %61, 1
  store i32 %62, i32* %9, align 4
  %63 = load i32, i32* %5, align 4
  %64 = load i32, i32* %8, align 4
  %65 = icmp sge i32 %63, %64
  br i1 %65, label %66, label %68

66:                                               ; preds = %60
  %67 = load i32, i32* %3, align 4
  br label %70

68:                                               ; preds = %60
  %69 = load i32, i32* %9, align 4
  br label %70

70:                                               ; preds = %68, %66
  %71 = phi i32 [ %67, %66 ], [ %69, %68 ]
  store i32 %71, i32* %3, align 4
  %72 = load i32, i32* %6, align 4
  %73 = load i32, i32* %8, align 4
  %74 = icmp sle i32 %72, %73
  br i1 %74, label %75, label %77

75:                                               ; preds = %70
  %76 = load i32, i32* %4, align 4
  br label %79

77:                                               ; preds = %70
  %78 = load i32, i32* %9, align 4
  br label %79

79:                                               ; preds = %77, %75
  %80 = phi i32 [ %76, %75 ], [ %78, %77 ]
  store i32 %80, i32* %4, align 4
  %81 = load i32, i32* %5, align 4
  %82 = load i32, i32* %8, align 4
  %83 = icmp sge i32 %81, %82
  br i1 %83, label %84, label %86

84:                                               ; preds = %79
  %85 = load i32, i32* %5, align 4
  br label %88

86:                                               ; preds = %79
  %87 = load i32, i32* %8, align 4
  br label %88

88:                                               ; preds = %86, %84
  %89 = phi i32 [ %85, %84 ], [ %87, %86 ]
  store i32 %89, i32* %5, align 4
  %90 = load i32, i32* %6, align 4
  %91 = load i32, i32* %8, align 4
  %92 = icmp sle i32 %90, %91
  br i1 %92, label %93, label %95

93:                                               ; preds = %88
  %94 = load i32, i32* %6, align 4
  br label %97

95:                                               ; preds = %88
  %96 = load i32, i32* %8, align 4
  br label %97

97:                                               ; preds = %95, %93
  %98 = phi i32 [ %94, %93 ], [ %96, %95 ]
  store i32 %98, i32* %6, align 4
  br label %99

99:                                               ; preds = %97, %57
  br label %15

100:                                              ; preds = %15
  store i32 0, i32* %10, align 4
  store i32 0, i32* %11, align 4
  store i32 0, i32* %7, align 4
  br label %101

101:                                              ; preds = %130, %100
  %102 = load i32, i32* %7, align 4
  %103 = sext i32 %102 to i64
  %104 = getelementptr inbounds [100 x i8], [100 x i8]* %2, i64 0, i64 %103
  %105 = load i8, i8* %104, align 1
  %106 = sext i8 %105 to i32
  %107 = icmp ne i32 %106, 0
  br i1 %107, label %108, label %133

108:                                              ; preds = %101
  %109 = load i32, i32* %7, align 4
  %110 = sext i32 %109 to i64
  %111 = getelementptr inbounds [100 x i8], [100 x i8]* %2, i64 0, i64 %110
  %112 = load i8, i8* %111, align 1
  %113 = sext i8 %112 to i32
  %114 = call i32 @isalpha(i32 %113) #3
  %115 = icmp ne i32 %114, 0
  br i1 %115, label %117, label %116

116:                                              ; preds = %108
  store i32 0, i32* %10, align 4
  br label %124

117:                                              ; preds = %108
  %118 = load i32, i32* %10, align 4
  %119 = icmp eq i32 %118, 0
  br i1 %119, label %120, label %123

120:                                              ; preds = %117
  store i32 1, i32* %10, align 4
  %121 = load i32, i32* %11, align 4
  %122 = add nsw i32 %121, 1
  store i32 %122, i32* %11, align 4
  br label %123

123:                                              ; preds = %120, %117
  br label %124

124:                                              ; preds = %123, %116
  %125 = load i32, i32* %11, align 4
  %126 = load i32, i32* %3, align 4
  %127 = icmp eq i32 %125, %126
  br i1 %127, label %128, label %129

128:                                              ; preds = %124
  br label %133

129:                                              ; preds = %124
  br label %130

130:                                              ; preds = %129
  %131 = load i32, i32* %7, align 4
  %132 = add nsw i32 %131, 1
  store i32 %132, i32* %7, align 4
  br label %101

133:                                              ; preds = %128, %101
  store i32 0, i32* %8, align 4
  br label %134

134:                                              ; preds = %147, %133
  %135 = load i32, i32* %8, align 4
  %136 = load i32, i32* %5, align 4
  %137 = icmp slt i32 %135, %136
  br i1 %137, label %138, label %150

138:                                              ; preds = %134
  %139 = load i32, i32* %7, align 4
  %140 = load i32, i32* %8, align 4
  %141 = add nsw i32 %139, %140
  %142 = sext i32 %141 to i64
  %143 = getelementptr inbounds [100 x i8], [100 x i8]* %2, i64 0, i64 %142
  %144 = load i8, i8* %143, align 1
  %145 = sext i8 %144 to i32
  %146 = call i32 (i8*, ...) @printf(i8* getelementptr inbounds ([3 x i8], [3 x i8]* @.str, i64 0, i64 0), i32 %145)
  br label %147

147:                                              ; preds = %138
  %148 = load i32, i32* %8, align 4
  %149 = add nsw i32 %148, 1
  store i32 %149, i32* %8, align 4
  br label %134

150:                                              ; preds = %134
  %151 = call i32 (i8*, ...) @printf(i8* getelementptr inbounds ([2 x i8], [2 x i8]* @.str.1, i64 0, i64 0))
  store i32 0, i32* %10, align 4
  store i32 0, i32* %11, align 4
  store i32 0, i32* %7, align 4
  br label %152

152:                                              ; preds = %181, %150
  %153 = load i32, i32* %7, align 4
  %154 = sext i32 %153 to i64
  %155 = getelementptr inbounds [100 x i8], [100 x i8]* %2, i64 0, i64 %154
  %156 = load i8, i8* %155, align 1
  %157 = sext i8 %156 to i32
  %158 = icmp ne i32 %157, 0
  br i1 %158, label %159, label %184

159:                                              ; preds = %152
  %160 = load i32, i32* %7, align 4
  %161 = sext i32 %160 to i64
  %162 = getelementptr inbounds [100 x i8], [100 x i8]* %2, i64 0, i64 %161
  %163 = load i8, i8* %162, align 1
  %164 = sext i8 %163 to i32
  %165 = call i32 @isalpha(i32 %164) #3
  %166 = icmp ne i32 %165, 0
  br i1 %166, label %168, label %167

167:                                              ; preds = %159
  store i32 0, i32* %10, align 4
  br label %175

168:                                              ; preds = %159
  %169 = load i32, i32* %10, align 4
  %170 = icmp eq i32 %169, 0
  br i1 %170, label %171, label %174

171:                                              ; preds = %168
  store i32 1, i32* %10, align 4
  %172 = load i32, i32* %11, align 4
  %173 = add nsw i32 %172, 1
  store i32 %173, i32* %11, align 4
  br label %174

174:                                              ; preds = %171, %168
  br label %175

175:                                              ; preds = %174, %167
  %176 = load i32, i32* %11, align 4
  %177 = load i32, i32* %4, align 4
  %178 = icmp eq i32 %176, %177
  br i1 %178, label %179, label %180

179:                                              ; preds = %175
  br label %184

180:                                              ; preds = %175
  br label %181

181:                                              ; preds = %180
  %182 = load i32, i32* %7, align 4
  %183 = add nsw i32 %182, 1
  store i32 %183, i32* %7, align 4
  br label %152

184:                                              ; preds = %179, %152
  store i32 0, i32* %8, align 4
  br label %185

185:                                              ; preds = %198, %184
  %186 = load i32, i32* %8, align 4
  %187 = load i32, i32* %6, align 4
  %188 = icmp slt i32 %186, %187
  br i1 %188, label %189, label %201

189:                                              ; preds = %185
  %190 = load i32, i32* %7, align 4
  %191 = load i32, i32* %8, align 4
  %192 = add nsw i32 %190, %191
  %193 = sext i32 %192 to i64
  %194 = getelementptr inbounds [100 x i8], [100 x i8]* %2, i64 0, i64 %193
  %195 = load i8, i8* %194, align 1
  %196 = sext i8 %195 to i32
  %197 = call i32 (i8*, ...) @printf(i8* getelementptr inbounds ([3 x i8], [3 x i8]* @.str, i64 0, i64 0), i32 %196)
  br label %198

198:                                              ; preds = %189
  %199 = load i32, i32* %8, align 4
  %200 = add nsw i32 %199, 1
  store i32 %200, i32* %8, align 4
  br label %185

201:                                              ; preds = %185
  %202 = call i32 (i8*, ...) @printf(i8* getelementptr inbounds ([2 x i8], [2 x i8]* @.str.1, i64 0, i64 0))
  ret i32 0
}

declare dso_local i8* @fgets(i8*, i32, %struct._IO_FILE*) #1

; Function Attrs: nounwind readonly
declare dso_local i32 @isalpha(i32) #2

declare dso_local i32 @printf(i8*, ...) #1


!llvm.module.flags = !{!0}
!llvm.ident = !{!1}

!0 = !{i32 1, !"wchar_size", i32 4}
!1 = !{!"clang version 10.0.0-4ubuntu1 "}
